; Function Attrs: mustprogress uwtable
define noundef zeroext i1 @_Z25ultag_isLanguageSubtag_77PKci(ptr noundef readonly captures(none) %0, i32 noundef %1) local_unnamed_addr #1 {
  %3 = icmp slt i32 %1, 0
  br i1 %3, label %4, label %7

4:                                                ; preds = %2
  %5 = tail call i64 @strlen(ptr noundef nonnull dereferenceable(1) %0) #20
  %6 = trunc i64 %5 to i32
  br label %7

7:                                                ; preds = %4, %2
  %.0 = phi i32 [ %6, %4 ], [ %1, %2 ]
  %8 = add i32 %.0, -2
  %or.cond = icmp ult i32 %8, 7
  br i1 %or.cond, label %9, label %14

9:                                                ; preds = %7
  %wide.trip.count.i = zext nneg i32 %.0 to i64
  br label %10

10:                                               ; preds = %10, %9
  %indvars.iv.i = phi i64 [ 0, %9 ], [ %indvars.iv.next.i, %10 ]
  %11 = getelementptr inbounds nuw i8, ptr %0, i64 %indvars.iv.i
  %12 = load i8, ptr %11, align 1, !tbaa !15
  %13 = tail call noundef signext i8 @uprv_isASCIILetter_77(i8 noundef signext %12)
  %.not.not.i = icmp ne i8 %13, 0
  %indvars.iv.next.i = add nuw nsw i64 %indvars.iv.i, 1
  %exitcond.not.i = icmp ne i64 %indvars.iv.next.i, %wide.trip.count.i
  %or.cond.not.i = select i1 %.not.not.i, i1 %exitcond.not.i, i1 false
  br i1 %or.cond.not.i, label %10, label %_ZN12_GLOBAL__N_114_isAlphaStringEPKci.exit, !llvm.loop !16

_ZN12_GLOBAL__N_114_isAlphaStringEPKci.exit:      ; preds = %10
  br i1 %.not.not.i, label %15, label %14

14:                                               ; preds = %_ZN12_GLOBAL__N_114_isAlphaStringEPKci.exit, %7
  br label %15

15:                                               ; preds = %_ZN12_GLOBAL__N_114_isAlphaStringEPKci.exit, %14
  %.07 = phi i1 [ false, %14 ], [ true, %_ZN12_GLOBAL__N_114_isAlphaStringEPKci.exit ]
  ret i1 %.07
}